; Function Attrs: nounwind uwtable
define dso_local range(i32 -1, 1) i32 @strbuf_getwholeline(ptr noundef %0, ptr noundef %1, i32 noundef %2) local_unnamed_addr #3 {
  %4 = tail call i32 @feof(ptr noundef %1) #25
  %.not = icmp eq i32 %4, 0
  br i1 %.not, label %5, label %strbuf_setlen.exit19

5:                                                ; preds = %3
  %6 = getelementptr inbounds nuw i8, ptr %0, i64 8
  store i64 0, ptr %6, align 8, !tbaa !16
  %7 = getelementptr inbounds nuw i8, ptr %0, i64 16
  %8 = load ptr, ptr %7, align 8, !tbaa !12
  %.not9.i = icmp eq ptr %8, @strbuf_slopbuf
  br i1 %.not9.i, label %strbuf_setlen.exit, label %9

9:                                                ; preds = %5
  store i8 0, ptr %8, align 1, !tbaa !4
  br label %strbuf_setlen.exit

strbuf_setlen.exit:                               ; preds = %5, %9
  %10 = load i64, ptr %0, align 8, !tbaa !15
  %.not15 = icmp eq i64 %10, 0
  br i1 %.not15, label %11, label %12

11:                                               ; preds = %strbuf_setlen.exit
  store ptr null, ptr %7, align 8, !tbaa !12
  br label %12

12:                                               ; preds = %11, %strbuf_setlen.exit
  %13 = tail call ptr @__errno_location() #27
  store i32 0, ptr %13, align 4, !tbaa !33
  %14 = tail call i64 @getdelim(ptr noundef nonnull %7, ptr noundef nonnull %0, i32 noundef %2, ptr noundef %1) #25
  %15 = icmp sgt i64 %14, 0
  br i1 %15, label %16, label %17

16:                                               ; preds = %12
  store i64 %14, ptr %6, align 8, !tbaa !16
  br label %strbuf_setlen.exit19

17:                                               ; preds = %12
  %18 = load i32, ptr %13, align 4, !tbaa !33
  %19 = icmp eq i32 %18, 12
  br i1 %19, label %20, label %21

20:                                               ; preds = %17
  tail call void (ptr, ...) @die(ptr noundef nonnull @.str.14) #24
  unreachable

21:                                               ; preds = %17
  %22 = load ptr, ptr %7, align 8, !tbaa !12
  %.not16 = icmp eq ptr %22, null
  br i1 %.not16, label %23, label %24

23:                                               ; preds = %21
  tail call void @llvm.memcpy.p0.p0.i64(ptr noundef nonnull align 8 dereferenceable(24) %0, ptr noundef nonnull align 8 dereferenceable(24) @__const.strbuf_addftime.munged_fmt, i64 24, i1 false)
  br label %strbuf_setlen.exit19

24:                                               ; preds = %21
  store i64 0, ptr %6, align 8, !tbaa !16
  %.not9.i18 = icmp eq ptr %22, @strbuf_slopbuf
  br i1 %.not9.i18, label %strbuf_setlen.exit19, label %25

25:                                               ; preds = %24
  store i8 0, ptr %22, align 1, !tbaa !4
  br label %strbuf_setlen.exit19

strbuf_setlen.exit19:                             ; preds = %25, %24, %23, %3, %16
  %.0 = phi i32 [ 0, %16 ], [ -1, %3 ], [ -1, %23 ], [ -1, %24 ], [ -1, %25 ]
  ret i32 %.0
}